target datalayout = "e-m:e-p270:32:32-p271:32:32-p272:64:64-i64:64-i128:128-f80:128-n8:16:32:64-S128"
target triple = "x86_64-pc-linux-gnu"

%struct.ggml_backend_buffer_i = type { ptr, ptr, ptr, ptr, ptr, ptr, ptr, ptr, ptr }
%struct.ggml_backend_buffer = type { %struct.ggml_backend_buffer_i, ptr, ptr, i64, i32 }
%struct.ggml_tensor = type { i32, ptr, [4 x i64], [4 x i64], i32, [16 x i32], i32, [10 x ptr], ptr, i64, ptr, [64 x i8], ptr, [8 x i8] }

@.str = private unnamed_addr constant [123 x i8] c"generated/home/dtcxzyw/WorkSpace/Projects/compilers/llvm-opt-benchmark/bench/llama.cpp/llama.cpp/ggml/src/ggml-backend.cpp\00", align 1
@.str.1 = private unnamed_addr constant [23 x i8] c"GGML_ASSERT(%s) failed\00", align 1
@.str.4 = private unnamed_addr constant [47 x i8] c"tensor->data != NULL && \22tensor not allocated\22\00", align 1
@.str.5 = private unnamed_addr constant [69 x i8] c"offset + size <= ggml_nbytes(tensor) && \22tensor write out of bounds\22\00", align 1
@.str.7 = private unnamed_addr constant [7 x i8] c"tensor\00", align 1
@.str.8 = private unnamed_addr constant [39 x i8] c"buf != NULL && \22tensor buffer not set\22\00", align 1

; Function Attrs: mustprogress uwtable
define void @ggml_backend_tensor_set(ptr noundef %0, ptr noundef %1, i64 noundef %2, i64 noundef %3) #0 {
  %5 = alloca ptr, align 8
  %6 = alloca ptr, align 8
  %7 = alloca i64, align 8
  %8 = alloca i64, align 8
  %9 = alloca ptr, align 8
  %10 = alloca i32, align 4
  store ptr %0, ptr %5, align 8, !tbaa !28
  store ptr %1, ptr %6, align 8, !tbaa !15
  store i64 %2, ptr %7, align 8, !tbaa !12
  store i64 %3, ptr %8, align 8, !tbaa !12
  %11 = load ptr, ptr %5, align 8, !tbaa !28
  %12 = icmp ne ptr %11, null
  br i1 %12, label %14, label %13

13:                                               ; preds = %4
  call void (ptr, i32, ptr, ...) @ggml_abort(ptr noundef @.str, i32 noundef 255, ptr noundef @.str.1, ptr noundef @.str.7) #18
  unreachable

14:                                               ; preds = %4
  call void @llvm.lifetime.start.p0(i64 8, ptr %9) #15
  %15 = load ptr, ptr %5, align 8, !tbaa !28
  %16 = getelementptr inbounds nuw %struct.ggml_tensor, ptr %15, i32 0, i32 8
  %17 = load ptr, ptr %16, align 8, !tbaa !49
  %18 = icmp ne ptr %17, null
  br i1 %18, label %19, label %25

19:                                               ; preds = %14
  %20 = load ptr, ptr %5, align 8, !tbaa !28
  %21 = getelementptr inbounds nuw %struct.ggml_tensor, ptr %20, i32 0, i32 8
  %22 = load ptr, ptr %21, align 8, !tbaa !49
  %23 = getelementptr inbounds nuw %struct.ggml_tensor, ptr %22, i32 0, i32 1
  %24 = load ptr, ptr %23, align 8, !tbaa !54
  br label %29

25:                                               ; preds = %14
  %26 = load ptr, ptr %5, align 8, !tbaa !28
  %27 = getelementptr inbounds nuw %struct.ggml_tensor, ptr %26, i32 0, i32 1
  %28 = load ptr, ptr %27, align 8, !tbaa !54
  br label %29

29:                                               ; preds = %25, %19
  %30 = phi ptr [ %24, %19 ], [ %28, %25 ]
  store ptr %30, ptr %9, align 8, !tbaa !24
  %31 = load i64, ptr %8, align 8, !tbaa !12
  %32 = icmp eq i64 %31, 0
  br i1 %32, label %33, label %34

33:                                               ; preds = %29
  store i32 1, ptr %10, align 4
  br label %62

34:                                               ; preds = %29
  %35 = load ptr, ptr %9, align 8, !tbaa !24
  %36 = icmp ne ptr %35, null
  br i1 %36, label %38, label %37

37:                                               ; preds = %34
  call void (ptr, i32, ptr, ...) @ggml_abort(ptr noundef @.str, i32 noundef 262, ptr noundef @.str.1, ptr noundef @.str.8) #18
  unreachable

38:                                               ; preds = %34
  %39 = load ptr, ptr %5, align 8, !tbaa !28
  %40 = getelementptr inbounds nuw %struct.ggml_tensor, ptr %39, i32 0, i32 10
  %41 = load ptr, ptr %40, align 8, !tbaa !70
  %42 = icmp ne ptr %41, null
  br i1 %42, label %44, label %43

43:                                               ; preds = %38
  call void (ptr, i32, ptr, ...) @ggml_abort(ptr noundef @.str, i32 noundef 263, ptr noundef @.str.1, ptr noundef @.str.4) #18
  unreachable

44:                                               ; preds = %38
  %45 = load i64, ptr %7, align 8, !tbaa !12
  %46 = load i64, ptr %8, align 8, !tbaa !12
  %47 = add i64 %45, %46
  %48 = load ptr, ptr %5, align 8, !tbaa !28
  %49 = call i64 @ggml_nbytes(ptr noundef %48)
  %50 = icmp ule i64 %47, %49
  br i1 %50, label %52, label %51

51:                                               ; preds = %44
  call void (ptr, i32, ptr, ...) @ggml_abort(ptr noundef @.str, i32 noundef 264, ptr noundef @.str.1, ptr noundef @.str.5) #18
  unreachable

52:                                               ; preds = %44
  %53 = load ptr, ptr %9, align 8, !tbaa !24
  %54 = getelementptr inbounds nuw %struct.ggml_backend_buffer, ptr %53, i32 0, i32 0
  %55 = getelementptr inbounds nuw %struct.ggml_backend_buffer_i, ptr %54, i32 0, i32 4
  %56 = load ptr, ptr %55, align 8, !tbaa !72
  %57 = load ptr, ptr %9, align 8, !tbaa !24
  %58 = load ptr, ptr %5, align 8, !tbaa !28
  %59 = load ptr, ptr %6, align 8, !tbaa !15
  %60 = load i64, ptr %7, align 8, !tbaa !12
  %61 = load i64, ptr %8, align 8, !tbaa !12
  call void %56(ptr noundef %57, ptr noundef %58, ptr noundef %59, i64 noundef %60, i64 noundef %61)
  store i32 0, ptr %10, align 4
  br label %62

62:                                               ; preds = %52, %33
  call void @llvm.lifetime.end.p0(i64 8, ptr %9) #15
  %63 = load i32, ptr %10, align 4
  switch i32 %63, label %65 [
    i32 0, label %64
    i32 1, label %64
  ]

64:                                               ; preds = %62, %62
  ret void

65:                                               ; preds = %62
  unreachable
}